target datalayout = "e-m:e-p270:32:32-p271:32:32-p272:64:64-i64:64-i128:128-f80:128-n8:16:32:64-S128"
target triple = "x86_64-pc-linux-gnu"

@color_decorate_slots = internal global [7 x ptr] [ptr null, ptr @.str.33, ptr @.str.34, ptr @.str.35, ptr @.str.36, ptr @.str.37, ptr @.str.38], align 16

; Function Attrs: inlinehint nounwind uwtable
define internal i32 @const_error() #2 {
  ret i32 -1
}

; Function Attrs: nounwind uwtable
define dso_local i32 @parse_decorate_color_config(ptr noundef %0, ptr noundef %1, ptr noundef %2) #0 {
  %4 = alloca i32, align 4
  %5 = alloca ptr, align 8
  %6 = alloca ptr, align 8
  %7 = alloca ptr, align 8
  %8 = alloca i32, align 4
  %9 = alloca i32, align 4
  store ptr %0, ptr %5, align 8, !tbaa !9
  store ptr %1, ptr %6, align 8, !tbaa !9
  store ptr %2, ptr %7, align 8, !tbaa !9
  call void @llvm.lifetime.start.p0(i64 4, ptr %8) #10
  %10 = load ptr, ptr %6, align 8, !tbaa !9
  %11 = call i32 @lookup_config(ptr noundef @color_decorate_slots, i32 noundef 7, ptr noundef %10)
  store i32 %11, ptr %8, align 4, !tbaa !15
  %12 = load i32, ptr %8, align 4, !tbaa !15
  %13 = icmp slt i32 %12, 0
  br i1 %13, label %14, label %15

14:                                               ; preds = %3
  store i32 0, ptr %4, align 4
  store i32 1, ptr %9, align 4
  br label %29

15:                                               ; preds = %3
  %16 = load ptr, ptr %7, align 8, !tbaa !9
  %17 = icmp ne ptr %16, null
  br i1 %17, label %22, label %18

18:                                               ; preds = %15
  %19 = load ptr, ptr %5, align 8, !tbaa !9
  %20 = call i32 @config_error_nonbool(ptr noundef %19)
  %21 = call i32 @const_error()
  store i32 %21, ptr %4, align 4
  store i32 1, ptr %9, align 4
  br label %29

22:                                               ; preds = %15
  %23 = load ptr, ptr %7, align 8, !tbaa !9
  %24 = load i32, ptr %8, align 4, !tbaa !15
  %25 = sext i32 %24 to i64
  %26 = getelementptr inbounds [7 x [75 x i8]], ptr @decoration_colors, i64 0, i64 %25
  %27 = getelementptr inbounds [75 x i8], ptr %26, i64 0, i64 0
  %28 = call i32 @color_parse(ptr noundef %23, ptr noundef %27)
  store i32 %28, ptr %4, align 4
  store i32 1, ptr %9, align 4
  br label %29

29:                                               ; preds = %22, %18, %14
  call void @llvm.lifetime.end.p0(i64 4, ptr %8) #10
  %30 = load i32, ptr %4, align 4
  ret i32 %30
}