; Function Attrs: nounwind uwtable
define dso_local i32 @parse_decorate_color_config(ptr noundef %0, ptr noundef %1, ptr noundef %2) local_unnamed_addr #0 {
  %4 = tail call i32 @lookup_config(ptr noundef nonnull @color_decorate_slots, i32 noundef 7, ptr noundef %1) #15
  %5 = icmp slt i32 %4, 0
  br i1 %5, label %13, label %6

6:                                                ; preds = %3
  %.not = icmp eq ptr %2, null
  br i1 %.not, label %7, label %9

7:                                                ; preds = %6
  %8 = tail call i32 @config_error_nonbool(ptr noundef %0) #15
  br label %13

9:                                                ; preds = %6
  %10 = zext nneg i32 %4 to i64
  %11 = getelementptr inbounds nuw [7 x [75 x i8]], ptr @decoration_colors, i64 0, i64 %10
  %12 = tail call i32 @color_parse(ptr noundef nonnull %2, ptr noundef nonnull %11) #15
  br label %13

13:                                               ; preds = %3, %9, %7
  %.0 = phi i32 [ %12, %9 ], [ -1, %7 ], [ 0, %3 ]
  ret i32 %.0
}